target datalayout = "e-m:e-p270:32:32-p271:32:32-p272:64:64-i64:64-i128:128-f80:128-n8:16:32:64-S128"
target triple = "x86_64-pc-linux-gnu"

%struct.statement = type { i32, ptr, ptr, ptr, i32, i8, i32, i8, ptr, ptr, ptr, i32, ptr, ptr, ptr, ptr }
%struct.connection = type { ptr, ptr, i8, ptr, ptr, ptr }

@.str.33 = private unnamed_addr constant [18 x i8] c"begin transaction\00", align 1
@.str.67 = private unnamed_addr constant [5 x i8] c"null\00", align 1
@.str.68 = private unnamed_addr constant [35 x i8] c"no memory for logging of parameter\00", align 1
@.str.69 = private unnamed_addr constant [48 x i8] c"ecpg_free_params on line %d: parameter %d = %s\0A\00", align 1

; Function Attrs: nounwind uwtable
define internal void @print_param_value(ptr noundef %0, i32 noundef %1, i32 noundef %2, i32 noundef %3, i32 noundef %4) #0 {
  %6 = alloca ptr, align 8
  %7 = alloca i32, align 4
  %8 = alloca i32, align 4
  %9 = alloca i32, align 4
  %10 = alloca i32, align 4
  %11 = alloca ptr, align 8
  %12 = alloca i8, align 1
  store ptr %0, ptr %6, align 8
  store i32 %1, ptr %7, align 4
  store i32 %2, ptr %8, align 4
  store i32 %3, ptr %9, align 4
  store i32 %4, ptr %10, align 4
  call void @llvm.lifetime.start.p0(i64 8, ptr %11) #10
  call void @llvm.lifetime.start.p0(i64 1, ptr %12) #10
  store i8 0, ptr %12, align 1
  %13 = load ptr, ptr %6, align 8
  %14 = icmp eq ptr %13, null
  br i1 %14, label %15, label %16

15:                                               ; preds = %5
  store ptr @.str.67, ptr %11, align 8
  br label %43

16:                                               ; preds = %5
  %17 = load i32, ptr %8, align 4
  %18 = icmp ne i32 %17, 0
  br i1 %18, label %21, label %19

19:                                               ; preds = %16
  %20 = load ptr, ptr %6, align 8
  store ptr %20, ptr %11, align 8
  br label %42

21:                                               ; preds = %16
  %22 = load i32, ptr %7, align 4
  %23 = call i32 @ecpg_hex_enc_len(i32 noundef %22)
  %24 = add i32 %23, 1
  %25 = zext i32 %24 to i64
  %26 = load i32, ptr %9, align 4
  %27 = call ptr @ecpg_alloc(i64 noundef %25, i32 noundef %26)
  store ptr %27, ptr %11, align 8
  %28 = load ptr, ptr %11, align 8
  %29 = icmp ne ptr %28, null
  br i1 %29, label %30, label %40

30:                                               ; preds = %21
  %31 = load ptr, ptr %6, align 8
  %32 = load i32, ptr %7, align 4
  %33 = load ptr, ptr %11, align 8
  %34 = call i32 @ecpg_hex_encode(ptr noundef %31, i32 noundef %32, ptr noundef %33)
  %35 = load ptr, ptr %11, align 8
  %36 = load i32, ptr %7, align 4
  %37 = call i32 @ecpg_hex_enc_len(i32 noundef %36)
  %38 = zext i32 %37 to i64
  %39 = getelementptr inbounds nuw i8, ptr %35, i64 %38
  store i8 0, ptr %39, align 1
  store i8 1, ptr %12, align 1
  br label %41

40:                                               ; preds = %21
  store ptr @.str.68, ptr %11, align 8
  br label %41

41:                                               ; preds = %40, %30
  br label %42

42:                                               ; preds = %41, %19
  br label %43

43:                                               ; preds = %42, %15
  %44 = load i32, ptr %9, align 4
  %45 = load i32, ptr %10, align 4
  %46 = load ptr, ptr %11, align 8
  call void (ptr, ...) @ecpg_log(ptr noundef @.str.69, i32 noundef %44, i32 noundef %45, ptr noundef %46)
  %47 = load i8, ptr %12, align 1, !range !7, !noundef !8
  %48 = trunc i8 %47 to i1
  br i1 %48, label %49, label %51

49:                                               ; preds = %43
  %50 = load ptr, ptr %11, align 8
  call void @ecpg_free(ptr noundef %50)
  br label %51

51:                                               ; preds = %49, %43
  call void @llvm.lifetime.end.p0(i64 1, ptr %12) #10
  call void @llvm.lifetime.end.p0(i64 8, ptr %11) #10
  ret void
}

; Function Attrs: nounwind uwtable
define void @ecpg_free_params(ptr noundef %0, i1 noundef zeroext %1) #0 {
  %3 = alloca ptr, align 8
  %4 = alloca i8, align 1
  %5 = alloca i32, align 4
  store ptr %0, ptr %3, align 8
  %6 = zext i1 %1 to i8
  store i8 %6, ptr %4, align 1
  call void @llvm.lifetime.start.p0(i64 4, ptr %5) #10
  store i32 0, ptr %5, align 4
  br label %7

7:                                                ; preds = %51, %2
  %8 = load i32, ptr %5, align 4
  %9 = load ptr, ptr %3, align 8
  %10 = getelementptr inbounds nuw %struct.statement, ptr %9, i32 0, i32 11
  %11 = load i32, ptr %10, align 8
  %12 = icmp slt i32 %8, %11
  br i1 %12, label %13, label %54

13:                                               ; preds = %7
  %14 = load i8, ptr %4, align 1, !range !7, !noundef !8
  %15 = trunc i8 %14 to i1
  br i1 %15, label %16, label %43

16:                                               ; preds = %13
  %17 = load ptr, ptr %3, align 8
  %18 = getelementptr inbounds nuw %struct.statement, ptr %17, i32 0, i32 12
  %19 = load ptr, ptr %18, align 8
  %20 = load i32, ptr %5, align 4
  %21 = sext i32 %20 to i64
  %22 = getelementptr inbounds ptr, ptr %19, i64 %21
  %23 = load ptr, ptr %22, align 8
  %24 = load ptr, ptr %3, align 8
  %25 = getelementptr inbounds nuw %struct.statement, ptr %24, i32 0, i32 13
  %26 = load ptr, ptr %25, align 8
  %27 = load i32, ptr %5, align 4
  %28 = sext i32 %27 to i64
  %29 = getelementptr inbounds i32, ptr %26, i64 %28
  %30 = load i32, ptr %29, align 4
  %31 = load ptr, ptr %3, align 8
  %32 = getelementptr inbounds nuw %struct.statement, ptr %31, i32 0, i32 14
  %33 = load ptr, ptr %32, align 8
  %34 = load i32, ptr %5, align 4
  %35 = sext i32 %34 to i64
  %36 = getelementptr inbounds i32, ptr %33, i64 %35
  %37 = load i32, ptr %36, align 4
  %38 = load ptr, ptr %3, align 8
  %39 = getelementptr inbounds nuw %struct.statement, ptr %38, i32 0, i32 0
  %40 = load i32, ptr %39, align 8
  %41 = load i32, ptr %5, align 4
  %42 = add i32 %41, 1
  call void @print_param_value(ptr noundef %23, i32 noundef %30, i32 noundef %37, i32 noundef %40, i32 noundef %42)
  br label %43

43:                                               ; preds = %16, %13
  %44 = load ptr, ptr %3, align 8
  %45 = getelementptr inbounds nuw %struct.statement, ptr %44, i32 0, i32 12
  %46 = load ptr, ptr %45, align 8
  %47 = load i32, ptr %5, align 4
  %48 = sext i32 %47 to i64
  %49 = getelementptr inbounds ptr, ptr %46, i64 %48
  %50 = load ptr, ptr %49, align 8
  call void @ecpg_free(ptr noundef %50)
  br label %51

51:                                               ; preds = %43
  %52 = load i32, ptr %5, align 4
  %53 = add i32 %52, 1
  store i32 %53, ptr %5, align 4
  br label %7, !llvm.loop !27

54:                                               ; preds = %7
  %55 = load ptr, ptr %3, align 8
  %56 = getelementptr inbounds nuw %struct.statement, ptr %55, i32 0, i32 12
  %57 = load ptr, ptr %56, align 8
  call void @ecpg_free(ptr noundef %57)
  %58 = load ptr, ptr %3, align 8
  %59 = getelementptr inbounds nuw %struct.statement, ptr %58, i32 0, i32 13
  %60 = load ptr, ptr %59, align 8
  call void @ecpg_free(ptr noundef %60)
  %61 = load ptr, ptr %3, align 8
  %62 = getelementptr inbounds nuw %struct.statement, ptr %61, i32 0, i32 14
  %63 = load ptr, ptr %62, align 8
  call void @ecpg_free(ptr noundef %63)
  %64 = load ptr, ptr %3, align 8
  %65 = getelementptr inbounds nuw %struct.statement, ptr %64, i32 0, i32 12
  store ptr null, ptr %65, align 8
  %66 = load ptr, ptr %3, align 8
  %67 = getelementptr inbounds nuw %struct.statement, ptr %66, i32 0, i32 13
  store ptr null, ptr %67, align 8
  %68 = load ptr, ptr %3, align 8
  %69 = getelementptr inbounds nuw %struct.statement, ptr %68, i32 0, i32 14
  store ptr null, ptr %69, align 8
  %70 = load ptr, ptr %3, align 8
  %71 = getelementptr inbounds nuw %struct.statement, ptr %70, i32 0, i32 11
  store i32 0, ptr %71, align 8
  call void @llvm.lifetime.end.p0(i64 4, ptr %5) #10
  ret void
}

; Function Attrs: nounwind uwtable
define zeroext i1 @ecpg_autostart_transaction(ptr noundef %0) #0 {
  %2 = alloca i1, align 1
  %3 = alloca ptr, align 8
  store ptr %0, ptr %3, align 8
  %4 = load ptr, ptr %3, align 8
  %5 = getelementptr inbounds nuw %struct.statement, ptr %4, i32 0, i32 3
  %6 = load ptr, ptr %5, align 8
  %7 = getelementptr inbounds nuw %struct.connection, ptr %6, i32 0, i32 1
  %8 = load ptr, ptr %7, align 8
  %9 = call i32 @PQtransactionStatus(ptr noundef %8)
  %10 = icmp eq i32 %9, 0
  br i1 %10, label %11, label %50

11:                                               ; preds = %1
  %12 = load ptr, ptr %3, align 8
  %13 = getelementptr inbounds nuw %struct.statement, ptr %12, i32 0, i32 3
  %14 = load ptr, ptr %13, align 8
  %15 = getelementptr inbounds nuw %struct.connection, ptr %14, i32 0, i32 2
  %16 = load i8, ptr %15, align 8, !range !7, !noundef !8
  %17 = trunc i8 %16 to i1
  br i1 %17, label %50, label %18

18:                                               ; preds = %11
  %19 = load ptr, ptr %3, align 8
  %20 = getelementptr inbounds nuw %struct.statement, ptr %19, i32 0, i32 3
  %21 = load ptr, ptr %20, align 8
  %22 = getelementptr inbounds nuw %struct.connection, ptr %21, i32 0, i32 1
  %23 = load ptr, ptr %22, align 8
  %24 = call ptr @PQexec(ptr noundef %23, ptr noundef @.str.33)
  %25 = load ptr, ptr %3, align 8
  %26 = getelementptr inbounds nuw %struct.statement, ptr %25, i32 0, i32 15
  store ptr %24, ptr %26, align 8
  %27 = load ptr, ptr %3, align 8
  %28 = getelementptr inbounds nuw %struct.statement, ptr %27, i32 0, i32 15
  %29 = load ptr, ptr %28, align 8
  %30 = load ptr, ptr %3, align 8
  %31 = getelementptr inbounds nuw %struct.statement, ptr %30, i32 0, i32 0
  %32 = load i32, ptr %31, align 8
  %33 = load ptr, ptr %3, align 8
  %34 = getelementptr inbounds nuw %struct.statement, ptr %33, i32 0, i32 3
  %35 = load ptr, ptr %34, align 8
  %36 = getelementptr inbounds nuw %struct.connection, ptr %35, i32 0, i32 1
  %37 = load ptr, ptr %36, align 8
  %38 = load ptr, ptr %3, align 8
  %39 = getelementptr inbounds nuw %struct.statement, ptr %38, i32 0, i32 4
  %40 = load i32, ptr %39, align 8
  %41 = call zeroext i1 @ecpg_check_PQresult(ptr noundef %29, i32 noundef %32, ptr noundef %37, i32 noundef %40)
  br i1 %41, label %44, label %42

42:                                               ; preds = %18
  %43 = load ptr, ptr %3, align 8
  call void @ecpg_free_params(ptr noundef %43, i1 noundef zeroext false)
  store i1 false, ptr %2, align 1
  br label %51

44:                                               ; preds = %18
  %45 = load ptr, ptr %3, align 8
  %46 = getelementptr inbounds nuw %struct.statement, ptr %45, i32 0, i32 15
  %47 = load ptr, ptr %46, align 8
  call void @PQclear(ptr noundef %47)
  %48 = load ptr, ptr %3, align 8
  %49 = getelementptr inbounds nuw %struct.statement, ptr %48, i32 0, i32 15
  store ptr null, ptr %49, align 8
  br label %50

50:                                               ; preds = %44, %11, %1
  store i1 true, ptr %2, align 1
  br label %51

51:                                               ; preds = %50, %42
  %52 = load i1, ptr %2, align 1
  ret i1 %52
}