; Function Attrs: nounwind uwtable
define noundef zeroext i1 @ecpg_autostart_transaction(ptr noundef captures(none) %0) local_unnamed_addr #0 {
  %2 = getelementptr inbounds nuw i8, ptr %0, i64 24
  %3 = load ptr, ptr %2, align 8
  %4 = getelementptr inbounds nuw i8, ptr %3, i64 8
  %5 = load ptr, ptr %4, align 8
  %6 = tail call i32 @PQtransactionStatus(ptr noundef %5) #14
  %7 = icmp eq i32 %6, 0
  br i1 %7, label %8, label %44

8:                                                ; preds = %1
  %9 = load ptr, ptr %2, align 8
  %10 = getelementptr inbounds nuw i8, ptr %9, i64 16
  %11 = load i8, ptr %10, align 8, !range !8, !noundef !9
  %12 = trunc nuw i8 %11 to i1
  br i1 %12, label %44, label %13

13:                                               ; preds = %8
  %14 = getelementptr inbounds nuw i8, ptr %9, i64 8
  %15 = load ptr, ptr %14, align 8
  %16 = tail call ptr @PQexec(ptr noundef %15, ptr noundef nonnull @.str.33) #14
  %17 = getelementptr inbounds nuw i8, ptr %0, i64 104
  store ptr %16, ptr %17, align 8
  %18 = load i32, ptr %0, align 8
  %19 = load ptr, ptr %2, align 8
  %20 = getelementptr inbounds nuw i8, ptr %19, i64 8
  %21 = load ptr, ptr %20, align 8
  %22 = getelementptr inbounds nuw i8, ptr %0, i64 32
  %23 = load i32, ptr %22, align 8
  %24 = tail call zeroext i1 @ecpg_check_PQresult(ptr noundef %16, i32 noundef %18, ptr noundef %21, i32 noundef %23) #14
  br i1 %24, label %42, label %25

25:                                               ; preds = %13
  %26 = getelementptr inbounds nuw i8, ptr %0, i64 72
  %27 = load i32, ptr %26, align 8
  %28 = icmp sgt i32 %27, 0
  br i1 %28, label %.lr.ph.i, label %ecpg_free_params.exit

.lr.ph.i:                                         ; preds = %25
  %29 = getelementptr inbounds nuw i8, ptr %0, i64 80
  br label %print_param_value.exit.i

print_param_value.exit.i:                         ; preds = %print_param_value.exit.i, %.lr.ph.i
  %indvars.iv.i = phi i64 [ %indvars.iv.next.i, %print_param_value.exit.i ], [ 0, %.lr.ph.i ]
  %30 = load ptr, ptr %29, align 8
  %31 = getelementptr inbounds nuw ptr, ptr %30, i64 %indvars.iv.i
  %32 = load ptr, ptr %31, align 8
  tail call void @ecpg_free(ptr noundef %32) #14
  %indvars.iv.next.i = add nuw nsw i64 %indvars.iv.i, 1
  %33 = load i32, ptr %26, align 8
  %34 = sext i32 %33 to i64
  %35 = icmp slt i64 %indvars.iv.next.i, %34
  br i1 %35, label %print_param_value.exit.i, label %ecpg_free_params.exit, !llvm.loop !27

ecpg_free_params.exit:                            ; preds = %print_param_value.exit.i, %25
  %36 = getelementptr inbounds nuw i8, ptr %0, i64 80
  %37 = load ptr, ptr %36, align 8
  tail call void @ecpg_free(ptr noundef %37) #14
  %38 = getelementptr inbounds nuw i8, ptr %0, i64 88
  %39 = load ptr, ptr %38, align 8
  tail call void @ecpg_free(ptr noundef %39) #14
  %40 = getelementptr inbounds nuw i8, ptr %0, i64 96
  %41 = load ptr, ptr %40, align 8
  tail call void @ecpg_free(ptr noundef %41) #14
  store i32 0, ptr %26, align 8
  tail call void @llvm.memset.p0.i64(ptr noundef nonnull align 8 dereferenceable(24) %36, i8 0, i64 24, i1 false)
  br label %44

42:                                               ; preds = %13
  %43 = load ptr, ptr %17, align 8
  tail call void @PQclear(ptr noundef %43) #14
  store ptr null, ptr %17, align 8
  br label %44

44:                                               ; preds = %1, %8, %42, %ecpg_free_params.exit
  %.0 = phi i1 [ false, %ecpg_free_params.exit ], [ true, %42 ], [ true, %8 ], [ true, %1 ]
  ret i1 %.0
}